; Function Attrs: mustprogress nounwind uwtable
define void @_ZN5Ipopt10GenTMatrixD2Ev(ptr noundef nonnull align 8 dereferenceable(89) %0) unnamed_addr #1 align 2 personality ptr @__gxx_personality_v0 {
  store ptr getelementptr inbounds ({ [14 x ptr], [4 x ptr] }, ptr @_ZTVN5Ipopt10GenTMatrixE, i64 0, i32 0, i64 2), ptr %0, align 8
  %2 = getelementptr inbounds i8, ptr %0, i64 16
  store ptr getelementptr inbounds ({ [14 x ptr], [4 x ptr] }, ptr @_ZTVN5Ipopt10GenTMatrixE, i64 0, i32 1, i64 2), ptr %2, align 8
  %3 = getelementptr inbounds i8, ptr %0, i64 80
  %4 = load ptr, ptr %3, align 8
  %5 = icmp eq ptr %4, null
  br i1 %5, label %_ZNK5Ipopt15GenTMatrixSpace19FreeInternalStorageEPd.exit, label %6

6:                                                ; preds = %1
  tail call void @_ZdaPv(ptr noundef nonnull %4) #13
  br label %_ZNK5Ipopt15GenTMatrixSpace19FreeInternalStorageEPd.exit

_ZNK5Ipopt15GenTMatrixSpace19FreeInternalStorageEPd.exit: ; preds = %1, %6
  store ptr getelementptr inbounds ({ [14 x ptr], [4 x ptr] }, ptr @_ZTVN5Ipopt6MatrixE, i64 0, i32 0, i64 2), ptr %0, align 8
  store ptr getelementptr inbounds ({ [14 x ptr], [4 x ptr] }, ptr @_ZTVN5Ipopt6MatrixE, i64 0, i32 1, i64 2), ptr %2, align 8
  %7 = getelementptr inbounds i8, ptr %0, i64 56
  %8 = load ptr, ptr %7, align 8
  %.not.i.i.i = icmp eq ptr %8, null
  br i1 %.not.i.i.i, label %_ZN5Ipopt6MatrixD2Ev.exit, label %9

9:                                                ; preds = %_ZNK5Ipopt15GenTMatrixSpace19FreeInternalStorageEPd.exit
  %10 = getelementptr inbounds i8, ptr %8, i64 8
  %11 = load i32, ptr %10, align 8
  %12 = add nsw i32 %11, -1
  store i32 %12, ptr %10, align 8
  %13 = load ptr, ptr %7, align 8
  %14 = getelementptr inbounds i8, ptr %13, i64 8
  %15 = load i32, ptr %14, align 8
  %16 = icmp eq i32 %15, 0
  br i1 %16, label %17, label %_ZN5Ipopt6MatrixD2Ev.exit

17:                                               ; preds = %9
  %18 = load ptr, ptr %13, align 8
  %19 = getelementptr inbounds i8, ptr %18, i64 8
  %20 = load ptr, ptr %19, align 8
  tail call void %20(ptr noundef nonnull align 8 dereferenceable(20) %13) #11
  br label %_ZN5Ipopt6MatrixD2Ev.exit

_ZN5Ipopt6MatrixD2Ev.exit:                        ; preds = %_ZNK5Ipopt15GenTMatrixSpace19FreeInternalStorageEPd.exit, %9, %17
  tail call void @_ZN5Ipopt7SubjectD2Ev(ptr noundef nonnull align 8 dereferenceable(32) %2) #11
  store ptr getelementptr inbounds ({ [4 x ptr] }, ptr @_ZTVN5Ipopt16ReferencedObjectE, i64 0, i32 0, i64 2), ptr %0, align 8
  ret void
}